Certificate:
    Data:
        Version: 3 (0x2)
        Serial Number: 1 (0x1)
    Signature Algorithm: sha1WithRSAEncryption
        Issuer: C=FR, ST=Bretagne, L=Rennes, O=Orange Business Services, OU=IBNF, CN=CA/name=CA/emailAddress=olivier.cochard@orange.com
        Validity
            Not Before: Sep 19 10:51:28 2014 GMT
            Not After : Sep 16 10:51:28 2024 GMT
        Subject: C=FR, ST=Bretagne, L=Rennes, O=Orange Business Services, OU=IBNF, CN=unregistered/name=unregistered/emailAddress=olivier.cochard@orange.com
        Subject Public Key Info:
            Public Key Algorithm: rsaEncryption
                Public-Key: (1024 bit)
                Modulus:
                    00:c5:ef:bb:bc:cb:2c:8f:df:09:56:bd:31:d4:fa:
                    94:ba:16:9f:af:21:5d:67:14:9d:2e:87:b1:46:70:
                    64:27:16:c3:f1:e8:ac:f6:e5:36:2c:8f:c8:72:1a:
                    6f:53:29:00:43:50:0d:bc:04:a6:e6:64:99:63:51:
                    52:bd:a2:cf:56:ec:90:52:7a:0c:96:0e:5b:bc:c9:
                    60:37:4c:3f:19:88:46:bc:78:fc:3f:53:a2:de:c2:
                    be:3d:a3:6f:f4:a2:4c:2e:ca:91:3a:99:57:20:f9:
                    3f:e2:7d:20:ed:fe:c9:00:62:db:fa:3d:0d:14:ee:
                    c7:0d:fe:2d:1d:25:08:b9:25
                Exponent: 65537 (0x10001)
        X509v3 extensions:
            X509v3 Basic Constraints: 
                CA:FALSE
            Netscape Comment: 
                Easy-RSA Generated Certificate
            X509v3 Subject Key Identifier: 
                B7:EA:88:0C:66:BE:B9:0A:15:29:1F:42:C4:76:D4:46:18:58:EF:5C
            X509v3 Authority Key Identifier: 
                keyid:70:48:06:C0:2B:31:06:33:EC:72:24:0B:1E:7A:E0:B4:3F:3F:5D:31
                DirName:/C=FR/ST=Bretagne/L=Rennes/O=Orange Business Services/OU=IBNF/CN=CA/name=CA/emailAddress=olivier.cochard@orange.com
                serial:A7:3A:3D:4C:29:93:49:69

            X509v3 Extended Key Usage: 
                TLS Web Client Authentication
            X509v3 Key Usage: 
                Digital Signature
    Signature Algorithm: sha1WithRSAEncryption
         8d:3f:85:1e:49:06:82:eb:ed:40:4b:2d:c2:a2:f3:ce:8e:47:
         08:ae:b9:72:a4:ae:87:aa:53:f0:d7:81:13:5d:68:96:ca:a8:
         f3:c2:f3:f3:02:25:34:56:22:cc:6d:d4:7d:36:6b:f4:2a:1f:
         7a:5b:b8:82:04:c6:e2:ee:d0:31:9d:50:2a:1b:af:b0:a4:81:
         52:47:e0:41:69:af:9e:97:9f:6e:08:00:e0:4f:8b:92:93:c6:
         db:17:94:91:51:17:c1:7c:d3:dc:56:90:48:3f:cc:5b:db:02:
         12:24:02:41:97:d0:86:71:7b:4a:86:2f:79:10:7d:aa:28:26:
         43:46
-----BEGIN CERTIFICATE-----
MIIEPTCCA6agAwIBAgIBATANBgkqhkiG9w0BAQUFADCBqDELMAkGA1UEBhMCRlIx
ETAPBgNVBAgTCEJyZXRhZ25lMQ8wDQYDVQQHEwZSZW5uZXMxITAfBgNVBAoTGE9y
YW5nZSBCdXNpbmVzcyBTZXJ2aWNlczENMAsGA1UECxMESUJORjELMAkGA1UEAxMC
Q0ExCzAJBgNVBCkTAkNBMSkwJwYJKoZIhvcNAQkBFhpvbGl2aWVyLmNvY2hhcmRA
b3JhbmdlLmNvbTAeFw0xNDA5MTkxMDUxMjhaFw0yNDA5MTYxMDUxMjhaMIG8MQsw
CQYDVQQGEwJGUjERMA8GA1UECBMIQnJldGFnbmUxDzANBgNVBAcTBlJlbm5lczEh
MB8GA1UEChMYT3JhbmdlIEJ1c2luZXNzIFNlcnZpY2VzMQ0wCwYDVQQLEwRJQk5G
MRUwEwYDVQQDEwx1bnJlZ2lzdGVyZWQxFTATBgNVBCkTDHVucmVnaXN0ZXJlZDEp
MCcGCSqGSIb3DQEJARYab2xpdmllci5jb2NoYXJkQG9yYW5nZS5jb20wgZ8wDQYJ
KoZIhvcNAQEBBQADgY0AMIGJAoGBAMXvu7zLLI/fCVa9MdT6lLoWn68hXWcUnS6H
sUZwZCcWw/HorPblNiyPyHIab1MpAENQDbwEpuZkmWNRUr2iz1bskFJ6DJYOW7zJ
YDdMPxmIRrx4/D9Tot7Cvj2jb/SiTC7KkTqZVyD5P+J9IO3+yQBi2/o9DRTuxw3+
LR0lCLklAgMBAAGjggFfMIIBWzAJBgNVHRMEAjAAMC0GCWCGSAGG+EIBDQQgFh5F
YXN5LVJTQSBHZW5lcmF0ZWQgQ2VydGlmaWNhdGUwHQYDVR0OBBYEFLfqiAxmvrkK
FSkfQsR21EYYWO9cMIHdBgNVHSMEgdUwgdKAFHBIBsArMQYz7HIkCx564LQ/P10x
oYGupIGrMIGoMQswCQYDVQQGEwJGUjERMA8GA1UECBMIQnJldGFnbmUxDzANBgNV
BAcTBlJlbm5lczEhMB8GA1UEChMYT3JhbmdlIEJ1c2luZXNzIFNlcnZpY2VzMQ0w
CwYDVQQLEwRJQk5GMQswCQYDVQQDEwJDQTELMAkGA1UEKRMCQ0ExKTAnBgkqhkiG
9w0BCQEWGm9saXZpZXIuY29jaGFyZEBvcmFuZ2UuY29tggkApzo9TCmTSWkwEwYD
VR0lBAwwCgYIKwYBBQUHAwIwCwYDVR0PBAQDAgeAMA0GCSqGSIb3DQEBBQUAA4GB
AI0/hR5JBoLr7UBLLcKi886ORwiuuXKkroeqU/DXgRNdaJbKqPPC8/MCJTRWIsxt
1H02a/QqH3pbuIIExuLu0DGdUCobr7CkgVJH4EFpr56Xn24IAOBPi5KTxtsXlJFR
F8F809xWkEg/zFvbAhIkAkGX0IZxe0qGL3kQfaooJkNG
-----END CERTIFICATE-----
